target datalayout = "e-m:e-p270:32:32-p271:32:32-p272:64:64-i64:64-i128:128-f80:128-n8:16:32:64-S128"
target triple = "x86_64-pc-linux-gnu"

%"class.llvm::IntrusiveRefCntPtr" = type { ptr }

@_ZZN5clang4ento17ProgramStateTraitIN12_GLOBAL__N_110ErrnoStateEE8GDMIndexEvE5Index = internal global i32 0, align 4

; Function Attrs: mustprogress nounwind uwtable
define linkonce_odr hidden noundef i32 @_ZN5clang4ento35DefaultProgramStatePartialTraitImplINS0_14errno_modeling15ErrnoCheckStateEE8MakeDataEPKPv(ptr noundef %0) #1 comdat align 2 {
  %2 = alloca ptr, align 8
  store ptr %0, ptr %2, align 8
  %3 = load ptr, ptr %2, align 8
  %4 = icmp ne ptr %3, null
  br i1 %4, label %5, label %10

5:                                                ; preds = %1
  %6 = load ptr, ptr %2, align 8
  %7 = load ptr, ptr %6, align 8
  %8 = ptrtoint ptr %7 to i64
  %9 = trunc i64 %8 to i32
  br label %11

10:                                               ; preds = %1
  br label %11

11:                                               ; preds = %10, %5
  %12 = phi i32 [ %9, %5 ], [ 0, %10 ]
  ret i32 %12
}

; Function Attrs: mustprogress nounwind uwtable
define internal noundef ptr @_ZN5clang4ento17ProgramStateTraitIN12_GLOBAL__N_110ErrnoStateEE8GDMIndexEv() #1 align 2 {
  ret ptr @_ZZN5clang4ento17ProgramStateTraitIN12_GLOBAL__N_110ErrnoStateEE8GDMIndexEvE5Index
}

; Function Attrs: mustprogress nounwind uwtable
define internal noundef i32 @_ZNK5clang4ento12ProgramState3getIN12_GLOBAL__N_110ErrnoStateEEENS0_17ProgramStateTraitIT_E9data_typeEv(ptr noundef nonnull align 8 dereferenceable(48) %0) #1 align 2 {
  %2 = alloca ptr, align 8
  store ptr %0, ptr %2, align 8
  %3 = load ptr, ptr %2, align 8
  %4 = call noundef ptr @_ZN5clang4ento17ProgramStateTraitIN12_GLOBAL__N_110ErrnoStateEE8GDMIndexEv()
  %5 = call noundef ptr @_ZNK5clang4ento12ProgramState7FindGDMEPv(ptr noundef nonnull align 8 dereferenceable(48) %3, ptr noundef %4)
  %6 = call noundef i32 @_ZN5clang4ento35DefaultProgramStatePartialTraitImplINS0_14errno_modeling15ErrnoCheckStateEE8MakeDataEPKPv(ptr noundef %5)
  ret i32 %6
}

; Function Attrs: mustprogress nounwind uwtable
define linkonce_odr hidden noundef ptr @_ZNK4llvm18IntrusiveRefCntPtrIKN5clang4ento12ProgramStateEEptEv(ptr noundef nonnull align 8 dereferenceable(8) %0) #1 comdat align 2 {
  %2 = alloca ptr, align 8
  store ptr %0, ptr %2, align 8
  %3 = load ptr, ptr %2, align 8
  %4 = getelementptr inbounds nuw %"class.llvm::IntrusiveRefCntPtr", ptr %3, i32 0, i32 0
  %5 = load ptr, ptr %4, align 8
  ret ptr %5
}

; Function Attrs: mustprogress nounwind uwtable
define dso_local noundef i32 @_ZN5clang4ento14errno_modeling13getErrnoStateEN4llvm18IntrusiveRefCntPtrIKNS0_12ProgramStateEEE(ptr noundef %0) #1 {
  %2 = alloca ptr, align 8
  store ptr %0, ptr %2, align 8
  %3 = call noundef ptr @_ZNK4llvm18IntrusiveRefCntPtrIKN5clang4ento12ProgramStateEEptEv(ptr noundef nonnull align 8 dereferenceable(8) %0)
  %4 = call noundef i32 @_ZNK5clang4ento12ProgramState3getIN12_GLOBAL__N_110ErrnoStateEEENS0_17ProgramStateTraitIT_E9data_typeEv(ptr noundef nonnull align 8 dereferenceable(48) %3)
  ret i32 %4
}