; Function Attrs: mustprogress nounwind uwtable
define dso_local noundef i32 @_ZN5clang4ento14errno_modeling13getErrnoStateEN4llvm18IntrusiveRefCntPtrIKNS0_12ProgramStateEEE(ptr noundef readonly captures(none) %0) local_unnamed_addr #1 {
  %2 = load ptr, ptr %0, align 8
  %3 = tail call noundef ptr @_ZNK5clang4ento12ProgramState7FindGDMEPv(ptr noundef nonnull align 8 dereferenceable(48) %2, ptr noundef nonnull @_ZZN5clang4ento17ProgramStateTraitIN12_GLOBAL__N_110ErrnoStateEE8GDMIndexEvE5Index) #15
  %.not.i.i = icmp eq ptr %3, null
  br i1 %.not.i.i, label %_ZNK5clang4ento12ProgramState3getIN12_GLOBAL__N_110ErrnoStateEEENS0_17ProgramStateTraitIT_E9data_typeEv.exit, label %4

4:                                                ; preds = %1
  %5 = load ptr, ptr %3, align 8
  %6 = ptrtoint ptr %5 to i64
  %7 = trunc i64 %6 to i32
  br label %_ZNK5clang4ento12ProgramState3getIN12_GLOBAL__N_110ErrnoStateEEENS0_17ProgramStateTraitIT_E9data_typeEv.exit

_ZNK5clang4ento12ProgramState3getIN12_GLOBAL__N_110ErrnoStateEEENS0_17ProgramStateTraitIT_E9data_typeEv.exit: ; preds = %1, %4
  %8 = phi i32 [ %7, %4 ], [ 0, %1 ]
  ret i32 %8
}